Certificate:
    Data:
        Version: 3 (0x2)
        Serial Number:
            89:ba:19:54:bd:4d:56:25:20:6b:14:75:df:41:10:25
    Signature Algorithm: sha256WithRSAEncryption
        Issuer: CN=Master
        Validity
            Not Before: Mar  4 05:42:14 2019 GMT
            Not After : Feb 16 05:42:14 2022 GMT
        Subject: CN=Client2
        Subject Public Key Info:
            Public Key Algorithm: rsaEncryption
                Public-Key: (2048 bit)
                Modulus:
                    00:d3:54:f0:c4:58:cb:6c:72:27:4a:50:5f:b5:5c:
                    b2:24:77:c5:2a:b8:7b:eb:7c:50:5c:57:40:a3:de:
                    77:e9:8e:4a:78:1e:bd:92:7b:b3:fb:84:9b:19:87:
                    0c:8b:cb:c4:3c:1b:b4:df:ca:25:a6:c6:13:9e:12:
                    1c:44:34:8d:0d:80:7d:eb:3f:8b:2b:50:e7:d9:66:
                    b5:f1:33:2a:00:1e:c7:79:c9:1b:55:18:63:38:9a:
                    36:20:b6:a1:a7:58:13:a9:58:a2:64:30:c0:3b:a0:
                    73:12:0b:29:7e:95:58:9d:3d:a2:da:18:89:69:cf:
                    e2:db:51:6a:9d:4d:3c:5d:13:37:ff:28:37:54:0e:
                    e1:08:20:41:f6:25:92:ba:79:42:b6:e6:09:ff:55:
                    77:95:3e:c5:0c:a2:5a:51:38:a0:f4:c8:af:96:d7:
                    00:b3:bd:de:37:b4:b1:24:16:9f:de:d7:ca:60:81:
                    f5:be:72:24:df:2d:ec:1c:b5:02:79:b2:b0:33:1a:
                    e2:e9:0c:24:ee:c5:77:cb:da:93:68:57:36:cf:17:
                    a9:8c:50:1d:07:5e:3b:e9:b9:39:b1:a9:12:42:7b:
                    72:36:29:fd:2e:23:16:69:fe:00:6a:8a:e4:5d:2c:
                    18:7a:6a:13:7e:12:12:0f:ae:c2:0c:a2:33:8d:c2:
                    8a:21
                Exponent: 65537 (0x10001)
        X509v3 extensions:
            X509v3 Basic Constraints: 
                CA:FALSE
            X509v3 Subject Key Identifier: 
                79:E4:DB:A9:A4:E0:C7:8C:D4:31:10:18:60:75:4F:83:0E:E8:D5:28
            X509v3 Authority Key Identifier: 
                keyid:4D:42:61:CA:79:6D:93:F5:79:BF:E2:9F:F3:F0:27:9C:27:C8:FC:21
                DirName:/CN=Master
                serial:E6:76:FF:34:15:2B:C0:63

            X509v3 Extended Key Usage: 
                TLS Web Client Authentication
            X509v3 Key Usage: 
                Digital Signature
    Signature Algorithm: sha256WithRSAEncryption
         72:4f:87:8a:84:3c:01:86:ce:86:09:a9:b1:74:06:62:33:d2:
         15:df:02:9d:8b:71:4d:db:86:d6:8b:70:a5:83:4c:11:d1:a0:
         fd:fe:0e:53:b9:83:5a:6b:36:b8:5a:f4:b8:f8:6d:5d:af:78:
         c0:ba:eb:62:e8:9f:62:98:e2:bf:b0:d9:ae:fc:a6:8d:94:67:
         ff:3f:91:2e:05:25:d2:36:63:ae:34:34:29:03:ce:13:65:8c:
         1c:46:35:a0:0e:8d:43:fc:d5:44:04:d0:a7:e3:b8:14:6f:08:
         07:ec:9c:9d:4c:8f:2d:83:ac:24:cb:f7:78:26:b3:c0:2a:71:
         0f:ec:00:95:3b:db:22:da:26:9f:b6:0b:6e:33:d3:87:e2:dc:
         bc:d4:16:d5:99:81:85:c7:6b:d0:b3:42:23:3a:a1:1f:46:c4:
         06:67:65:23:6e:8f:ce:73:6a:52:eb:78:fa:7b:fc:e4:f4:74:
         ee:98:9a:f1:af:d0:2c:b4:ab:16:ee:58:ac:f0:db:93:48:cd:
         bb:13:aa:19:58:ff:29:70:99:a0:bd:03:46:e8:f1:9c:a4:02:
         59:2d:89:77:06:39:96:5f:f9:8d:90:36:dc:f0:48:de:71:f9:
         ca:a1:4c:5b:dd:96:e8:9e:68:d4:24:54:6c:ed:ba:a7:27:a9:
         03:68:34:7b
-----BEGIN CERTIFICATE-----
MIIDQTCCAimgAwIBAgIRAIm6GVS9TVYlIGsUdd9BECUwDQYJKoZIhvcNAQELBQAw
ETEPMA0GA1UEAwwGTWFzdGVyMB4XDTE5MDMwNDA1NDIxNFoXDTIyMDIxNjA1NDIx
NFowEjEQMA4GA1UEAwwHQ2xpZW50MjCCASIwDQYJKoZIhvcNAQEBBQADggEPADCC
AQoCggEBANNU8MRYy2xyJ0pQX7VcsiR3xSq4e+t8UFxXQKPed+mOSngevZJ7s/uE
mxmHDIvLxDwbtN/KJabGE54SHEQ0jQ2Afes/iytQ59lmtfEzKgAex3nJG1UYYzia
NiC2oadYE6lYomQwwDugcxILKX6VWJ09otoYiWnP4ttRap1NPF0TN/8oN1QO4Qgg
QfYlkrp5QrbmCf9Vd5U+xQyiWlE4oPTIr5bXALO93je0sSQWn97XymCB9b5yJN8t
7By1AnmysDMa4ukMJO7Fd8vak2hXNs8XqYxQHQdeO+m5ObGpEkJ7cjYp/S4jFmn+
AGqK5F0sGHpqE34SEg+uwgyiM43CiiECAwEAAaOBkjCBjzAJBgNVHRMEAjAAMB0G
A1UdDgQWBBR55NuppODHjNQxEBhgdU+DDujVKDBBBgNVHSMEOjA4gBRNQmHKeW2T
9Xm/4p/z8CecJ8j8IaEVpBMwETEPMA0GA1UEAwwGTWFzdGVyggkA5nb/NBUrwGMw
EwYDVR0lBAwwCgYIKwYBBQUHAwIwCwYDVR0PBAQDAgeAMA0GCSqGSIb3DQEBCwUA
A4IBAQByT4eKhDwBhs6GCamxdAZiM9IV3wKdi3FN24bWi3Clg0wR0aD9/g5TuYNa
aza4WvS4+G1dr3jAuuti6J9imOK/sNmu/KaNlGf/P5EuBSXSNmOuNDQpA84TZYwc
RjWgDo1D/NVEBNCn47gUbwgH7JydTI8tg6wky/d4JrPAKnEP7ACVO9si2iaftgtu
M9OH4ty81BbVmYGFx2vQs0IjOqEfRsQGZ2Ujbo/Oc2pS63j6e/zk9HTumJrxr9As
tKsW7lis8NuTSM27E6oZWP8pcJmgvQNG6PGcpAJZLYl3BjmWX/mNkDbc8EjecfnK
oUxb3ZbonmjUJFRs7bqnJ6kDaDR7
-----END CERTIFICATE-----
